; Function Attrs: nounwind uwtable
define internal fastcc void @Vec_IntFillExtra(ptr noundef captures(none) %0, i32 noundef range(i32 -2147483647, -2147483648) %1) unnamed_addr #2 {
  %3 = getelementptr inbounds nuw i8, ptr %0, i64 4
  %4 = load i32, ptr %3, align 4
  %.not = icmp sgt i32 %1, %4
  br i1 %.not, label %5, label %40

5:                                                ; preds = %2
  %6 = load i32, ptr %0, align 8
  %7 = shl nsw i32 %6, 1
  %8 = icmp sgt i32 %1, %7
  %.not.i = icmp slt i32 %6, %1
  br i1 %8, label %9, label %21

9:                                                ; preds = %5
  br i1 %.not.i, label %10, label %Vec_IntGrow.exit

10:                                               ; preds = %9
  %11 = getelementptr inbounds nuw i8, ptr %0, i64 8
  %12 = load ptr, ptr %11, align 8
  %.not9.i = icmp eq ptr %12, null
  %13 = sext i32 %1 to i64
  %14 = shl nsw i64 %13, 2
  br i1 %.not9.i, label %17, label %15

15:                                               ; preds = %10
  %16 = tail call ptr @realloc(ptr noundef nonnull %12, i64 noundef %14) #10
  br label %19

17:                                               ; preds = %10
  %18 = tail call noalias ptr @malloc(i64 noundef %14) #8
  br label %19

19:                                               ; preds = %17, %15
  %20 = phi ptr [ %16, %15 ], [ %18, %17 ]
  store ptr %20, ptr %11, align 8
  br label %Vec_IntGrow.exit.sink.split

21:                                               ; preds = %5
  br i1 %.not.i, label %22, label %Vec_IntGrow.exit

22:                                               ; preds = %21
  %23 = getelementptr inbounds nuw i8, ptr %0, i64 8
  %24 = load ptr, ptr %23, align 8
  %.not9.i21 = icmp eq ptr %24, null
  %25 = sext i32 %7 to i64
  %26 = shl nsw i64 %25, 2
  br i1 %.not9.i21, label %29, label %27

27:                                               ; preds = %22
  %28 = tail call ptr @realloc(ptr noundef nonnull %24, i64 noundef %26) #10
  br label %31

29:                                               ; preds = %22
  %30 = tail call noalias ptr @malloc(i64 noundef %26) #8
  br label %31

31:                                               ; preds = %29, %27
  %32 = phi ptr [ %28, %27 ], [ %30, %29 ]
  store ptr %32, ptr %23, align 8
  br label %Vec_IntGrow.exit.sink.split

Vec_IntGrow.exit.sink.split:                      ; preds = %19, %31
  %.sink = phi i32 [ %7, %31 ], [ %1, %19 ]
  store i32 %.sink, ptr %0, align 8
  br label %Vec_IntGrow.exit

Vec_IntGrow.exit:                                 ; preds = %Vec_IntGrow.exit.sink.split, %9, %21
  %33 = load i32, ptr %3, align 4
  %34 = icmp slt i32 %33, %1
  br i1 %34, label %.lr.ph, label %._crit_edge

.lr.ph:                                           ; preds = %Vec_IntGrow.exit
  %35 = getelementptr inbounds nuw i8, ptr %0, i64 8
  %36 = sext i32 %33 to i64
  %wide.trip.count = sext i32 %1 to i64
  br label %37

37:                                               ; preds = %.lr.ph, %37
  %indvars.iv = phi i64 [ %36, %.lr.ph ], [ %indvars.iv.next, %37 ]
  %38 = load ptr, ptr %35, align 8
  %39 = getelementptr inbounds i32, ptr %38, i64 %indvars.iv
  store i32 0, ptr %39, align 4
  %indvars.iv.next = add nsw i64 %indvars.iv, 1
  %exitcond.not = icmp eq i64 %indvars.iv.next, %wide.trip.count
  br i1 %exitcond.not, label %._crit_edge, label %37, !llvm.loop !9

._crit_edge:                                      ; preds = %37, %Vec_IntGrow.exit
  store i32 %1, ptr %3, align 4
  br label %40

40:                                               ; preds = %2, %._crit_edge
  ret void
}